target datalayout = "e-m:e-p270:32:32-p271:32:32-p272:64:64-i64:64-i128:128-f80:128-n8:16:32:64-S128"
target triple = "x86_64-pc-linux-gnu"

@.str.21 = private unnamed_addr constant [16 x i8] c"CVSPILS_SUCCESS\00", align 1
@.str.22 = private unnamed_addr constant [17 x i8] c"CVSPILS_MEM_NULL\00", align 1
@.str.23 = private unnamed_addr constant [18 x i8] c"CVSPILS_LMEM_NULL\00", align 1
@.str.24 = private unnamed_addr constant [18 x i8] c"CVSPILS_ILL_INPUT\00", align 1
@.str.25 = private unnamed_addr constant [17 x i8] c"CVSPILS_MEM_FAIL\00", align 1
@.str.26 = private unnamed_addr constant [18 x i8] c"CVSPILS_PMEM_NULL\00", align 1
@.str.27 = private unnamed_addr constant [15 x i8] c"CVSPILS_NO_ADJ\00", align 1
@.str.28 = private unnamed_addr constant [19 x i8] c"CVSPILS_LMEMB_NULL\00", align 1
@.str.29 = private unnamed_addr constant [5 x i8] c"NONE\00", align 1

; Function Attrs: nounwind uwtable
define ptr @CVSpilsGetReturnFlagName(i64 noundef %0) #0 {
  %2 = alloca i64, align 8
  %3 = alloca ptr, align 8
  store i64 %0, ptr %2, align 8, !tbaa !37
  call void @llvm.lifetime.start.p0(i64 8, ptr %3) #5
  %4 = call noalias ptr @malloc(i64 noundef 30) #6
  store ptr %4, ptr %3, align 8, !tbaa !46
  %5 = load i64, ptr %2, align 8, !tbaa !37
  switch i64 %5, label %30 [
    i64 0, label %6
    i64 -1, label %9
    i64 -2, label %12
    i64 -3, label %15
    i64 -4, label %18
    i64 -5, label %21
    i64 -101, label %24
    i64 -102, label %27
  ]

6:                                                ; preds = %1
  %7 = load ptr, ptr %3, align 8, !tbaa !46
  %8 = call i32 (ptr, ptr, ...) @sprintf(ptr noundef %7, ptr noundef @.str.21) #5
  br label %33

9:                                                ; preds = %1
  %10 = load ptr, ptr %3, align 8, !tbaa !46
  %11 = call i32 (ptr, ptr, ...) @sprintf(ptr noundef %10, ptr noundef @.str.22) #5
  br label %33

12:                                               ; preds = %1
  %13 = load ptr, ptr %3, align 8, !tbaa !46
  %14 = call i32 (ptr, ptr, ...) @sprintf(ptr noundef %13, ptr noundef @.str.23) #5
  br label %33

15:                                               ; preds = %1
  %16 = load ptr, ptr %3, align 8, !tbaa !46
  %17 = call i32 (ptr, ptr, ...) @sprintf(ptr noundef %16, ptr noundef @.str.24) #5
  br label %33

18:                                               ; preds = %1
  %19 = load ptr, ptr %3, align 8, !tbaa !46
  %20 = call i32 (ptr, ptr, ...) @sprintf(ptr noundef %19, ptr noundef @.str.25) #5
  br label %33

21:                                               ; preds = %1
  %22 = load ptr, ptr %3, align 8, !tbaa !46
  %23 = call i32 (ptr, ptr, ...) @sprintf(ptr noundef %22, ptr noundef @.str.26) #5
  br label %33

24:                                               ; preds = %1
  %25 = load ptr, ptr %3, align 8, !tbaa !46
  %26 = call i32 (ptr, ptr, ...) @sprintf(ptr noundef %25, ptr noundef @.str.27) #5
  br label %33

27:                                               ; preds = %1
  %28 = load ptr, ptr %3, align 8, !tbaa !46
  %29 = call i32 (ptr, ptr, ...) @sprintf(ptr noundef %28, ptr noundef @.str.28) #5
  br label %33

30:                                               ; preds = %1
  %31 = load ptr, ptr %3, align 8, !tbaa !46
  %32 = call i32 (ptr, ptr, ...) @sprintf(ptr noundef %31, ptr noundef @.str.29) #5
  br label %33

33:                                               ; preds = %30, %27, %24, %21, %18, %15, %12, %9, %6
  %34 = load ptr, ptr %3, align 8, !tbaa !46
  call void @llvm.lifetime.end.p0(i64 8, ptr %3) #5
  ret ptr %34
}