; Function Attrs: mustprogress nofree nounwind willreturn memory(readwrite, argmem: none) uwtable
define noalias noundef ptr @CVSpilsGetReturnFlagName(i64 noundef %0) local_unnamed_addr #2 {
  %2 = tail call noalias dereferenceable_or_null(30) ptr @malloc(i64 noundef 30) #6
  switch i64 %0, label %11 [
    i64 0, label %3
    i64 -1, label %4
    i64 -2, label %5
    i64 -3, label %6
    i64 -4, label %7
    i64 -5, label %8
    i64 -101, label %9
    i64 -102, label %10
  ]

3:                                                ; preds = %1
  tail call void @llvm.memcpy.p0.p0.i64(ptr noundef nonnull align 1 dereferenceable(16) %2, ptr noundef nonnull align 1 dereferenceable(16) @.str.21, i64 16, i1 false)
  br label %12

4:                                                ; preds = %1
  tail call void @llvm.memcpy.p0.p0.i64(ptr noundef nonnull align 1 dereferenceable(17) %2, ptr noundef nonnull align 1 dereferenceable(17) @.str.22, i64 17, i1 false)
  br label %12

5:                                                ; preds = %1
  tail call void @llvm.memcpy.p0.p0.i64(ptr noundef nonnull align 1 dereferenceable(18) %2, ptr noundef nonnull align 1 dereferenceable(18) @.str.23, i64 18, i1 false)
  br label %12

6:                                                ; preds = %1
  tail call void @llvm.memcpy.p0.p0.i64(ptr noundef nonnull align 1 dereferenceable(18) %2, ptr noundef nonnull align 1 dereferenceable(18) @.str.24, i64 18, i1 false)
  br label %12

7:                                                ; preds = %1
  tail call void @llvm.memcpy.p0.p0.i64(ptr noundef nonnull align 1 dereferenceable(17) %2, ptr noundef nonnull align 1 dereferenceable(17) @.str.25, i64 17, i1 false)
  br label %12

8:                                                ; preds = %1
  tail call void @llvm.memcpy.p0.p0.i64(ptr noundef nonnull align 1 dereferenceable(18) %2, ptr noundef nonnull align 1 dereferenceable(18) @.str.26, i64 18, i1 false)
  br label %12

9:                                                ; preds = %1
  tail call void @llvm.memcpy.p0.p0.i64(ptr noundef nonnull align 1 dereferenceable(15) %2, ptr noundef nonnull align 1 dereferenceable(15) @.str.27, i64 15, i1 false)
  br label %12

10:                                               ; preds = %1
  tail call void @llvm.memcpy.p0.p0.i64(ptr noundef nonnull align 1 dereferenceable(19) %2, ptr noundef nonnull align 1 dereferenceable(19) @.str.28, i64 19, i1 false)
  br label %12

11:                                               ; preds = %1
  tail call void @llvm.memcpy.p0.p0.i64(ptr noundef nonnull align 1 dereferenceable(5) %2, ptr noundef nonnull align 1 dereferenceable(5) @.str.29, i64 5, i1 false)
  br label %12

12:                                               ; preds = %11, %10, %9, %8, %7, %6, %5, %4, %3
  ret ptr %2
}